target datalayout = "e-m:e-p270:32:32-p271:32:32-p272:64:64-i64:64-i128:128-f80:128-n8:16:32:64-S128"
target triple = "x86_64-pc-linux-gnu"

%struct.string_list = type { ptr, i64, i64, i8, ptr }
%struct.string_list_item = type { ptr, ptr }
%struct.ref_states = type { ptr, %struct.string_list, %struct.string_list, %struct.string_list, %struct.string_list, %struct.string_list, %struct.string_list, i32 }
%struct.show_info = type { %struct.string_list, %struct.ref_states, i32, i32, i32 }
%struct.push_info = type { ptr, i32, i32 }

@git_gettext_enabled = external global i32, align 4
@.str.103 = private unnamed_addr constant [7 x i8] c"delete\00", align 1
@.str.158 = private unnamed_addr constant [1 x i8] zeroinitializer, align 1
@.str.180 = private unnamed_addr constant [7 x i8] c"create\00", align 1
@.str.181 = private unnamed_addr constant [7 x i8] c"(none)\00", align 1
@.str.182 = private unnamed_addr constant [11 x i8] c"up to date\00", align 1
@.str.183 = private unnamed_addr constant [17 x i8] c"fast-forwardable\00", align 1
@.str.184 = private unnamed_addr constant [18 x i8] c"local out of date\00", align 1
@.str.185 = private unnamed_addr constant [29 x i8] c"    %-*s forces to %-*s (%s)\00", align 1
@.str.186 = private unnamed_addr constant [29 x i8] c"    %-*s pushes to %-*s (%s)\00", align 1
@.str.187 = private unnamed_addr constant [22 x i8] c"    %-*s forces to %s\00", align 1
@.str.188 = private unnamed_addr constant [22 x i8] c"    %-*s pushes to %s\00", align 1

; Function Attrs: inlinehint nounwind uwtable
define internal ptr @_(ptr noundef %0) #4 {
  %2 = alloca ptr, align 8
  %3 = alloca ptr, align 8
  store ptr %0, ptr %3, align 8, !tbaa !11
  %4 = load ptr, ptr %3, align 8, !tbaa !11
  %5 = load i8, ptr %4, align 1, !tbaa !125
  %6 = icmp ne i8 %5, 0
  br i1 %6, label %8, label %7

7:                                                ; preds = %1
  store ptr @.str.158, ptr %2, align 8
  br label %16

8:                                                ; preds = %1
  %9 = load i32, ptr @git_gettext_enabled, align 4, !tbaa !4
  %10 = icmp ne i32 %9, 0
  br i1 %10, label %13, label %11

11:                                               ; preds = %8
  %12 = load ptr, ptr %3, align 8, !tbaa !11
  store ptr %12, ptr %2, align 8
  br label %16

13:                                               ; preds = %8
  %14 = load ptr, ptr %3, align 8, !tbaa !11
  %15 = call ptr @dcgettext(ptr noundef null, ptr noundef %14, i32 noundef 5) #11
  store ptr %15, ptr %2, align 8
  br label %16

16:                                               ; preds = %13, %11, %7
  %17 = load ptr, ptr %2, align 8
  ret ptr %17
}

; Function Attrs: nounwind uwtable
define internal i32 @show_push_info_item(ptr noundef %0, ptr noundef %1) #0 {
  %3 = alloca ptr, align 8
  %4 = alloca ptr, align 8
  %5 = alloca ptr, align 8
  %6 = alloca ptr, align 8
  %7 = alloca ptr, align 8
  %8 = alloca ptr, align 8
  store ptr %0, ptr %3, align 8, !tbaa !62
  store ptr %1, ptr %4, align 8, !tbaa !15
  call void @llvm.lifetime.start.p0(i64 8, ptr %5) #11
  %9 = load ptr, ptr %4, align 8, !tbaa !15
  store ptr %9, ptr %5, align 8, !tbaa !203
  call void @llvm.lifetime.start.p0(i64 8, ptr %6) #11
  %10 = load ptr, ptr %3, align 8, !tbaa !62
  %11 = getelementptr inbounds nuw %struct.string_list_item, ptr %10, i32 0, i32 1
  %12 = load ptr, ptr %11, align 8, !tbaa !63
  store ptr %12, ptr %6, align 8, !tbaa !191
  call void @llvm.lifetime.start.p0(i64 8, ptr %7) #11
  %13 = load ptr, ptr %3, align 8, !tbaa !62
  %14 = getelementptr inbounds nuw %struct.string_list_item, ptr %13, i32 0, i32 0
  %15 = load ptr, ptr %14, align 8, !tbaa !38
  store ptr %15, ptr %7, align 8, !tbaa !11
  call void @llvm.lifetime.start.p0(i64 8, ptr %8) #11
  store ptr null, ptr %8, align 8, !tbaa !11
  %16 = load ptr, ptr %6, align 8, !tbaa !191
  %17 = getelementptr inbounds nuw %struct.push_info, ptr %16, i32 0, i32 2
  %18 = load i32, ptr %17, align 4, !tbaa !196
  switch i32 %18, label %30 [
    i32 0, label %19
    i32 1, label %21
    i32 2, label %24
    i32 3, label %26
    i32 4, label %28
    i32 5, label %30
  ]

19:                                               ; preds = %2
  %20 = call ptr @_(ptr noundef @.str.180)
  store ptr %20, ptr %8, align 8, !tbaa !11
  br label %30

21:                                               ; preds = %2
  %22 = call ptr @_(ptr noundef @.str.103)
  store ptr %22, ptr %8, align 8, !tbaa !11
  %23 = call ptr @_(ptr noundef @.str.181)
  store ptr %23, ptr %7, align 8, !tbaa !11
  br label %30

24:                                               ; preds = %2
  %25 = call ptr @_(ptr noundef @.str.182)
  store ptr %25, ptr %8, align 8, !tbaa !11
  br label %30

26:                                               ; preds = %2
  %27 = call ptr @_(ptr noundef @.str.183)
  store ptr %27, ptr %8, align 8, !tbaa !11
  br label %30

28:                                               ; preds = %2
  %29 = call ptr @_(ptr noundef @.str.184)
  store ptr %29, ptr %8, align 8, !tbaa !11
  br label %30

30:                                               ; preds = %2, %2, %28, %26, %24, %21, %19
  %31 = load ptr, ptr %8, align 8, !tbaa !11
  %32 = icmp ne ptr %31, null
  br i1 %32, label %33, label %67

33:                                               ; preds = %30
  %34 = load ptr, ptr %6, align 8, !tbaa !191
  %35 = getelementptr inbounds nuw %struct.push_info, ptr %34, i32 0, i32 1
  %36 = load i32, ptr %35, align 8, !tbaa !193
  %37 = icmp ne i32 %36, 0
  br i1 %37, label %38, label %52

38:                                               ; preds = %33
  %39 = call ptr @_(ptr noundef @.str.185)
  %40 = load ptr, ptr %5, align 8, !tbaa !203
  %41 = getelementptr inbounds nuw %struct.show_info, ptr %40, i32 0, i32 2
  %42 = load i32, ptr %41, align 8, !tbaa !113
  %43 = load ptr, ptr %7, align 8, !tbaa !11
  %44 = load ptr, ptr %5, align 8, !tbaa !203
  %45 = getelementptr inbounds nuw %struct.show_info, ptr %44, i32 0, i32 3
  %46 = load i32, ptr %45, align 4, !tbaa !117
  %47 = load ptr, ptr %6, align 8, !tbaa !191
  %48 = getelementptr inbounds nuw %struct.push_info, ptr %47, i32 0, i32 0
  %49 = load ptr, ptr %48, align 8, !tbaa !195
  %50 = load ptr, ptr %8, align 8, !tbaa !11
  %51 = call i32 (ptr, ...) @printf_ln(ptr noundef %39, i32 noundef %42, ptr noundef %43, i32 noundef %46, ptr noundef %49, ptr noundef %50)
  br label %66

52:                                               ; preds = %33
  %53 = call ptr @_(ptr noundef @.str.186)
  %54 = load ptr, ptr %5, align 8, !tbaa !203
  %55 = getelementptr inbounds nuw %struct.show_info, ptr %54, i32 0, i32 2
  %56 = load i32, ptr %55, align 8, !tbaa !113
  %57 = load ptr, ptr %7, align 8, !tbaa !11
  %58 = load ptr, ptr %5, align 8, !tbaa !203
  %59 = getelementptr inbounds nuw %struct.show_info, ptr %58, i32 0, i32 3
  %60 = load i32, ptr %59, align 4, !tbaa !117
  %61 = load ptr, ptr %6, align 8, !tbaa !191
  %62 = getelementptr inbounds nuw %struct.push_info, ptr %61, i32 0, i32 0
  %63 = load ptr, ptr %62, align 8, !tbaa !195
  %64 = load ptr, ptr %8, align 8, !tbaa !11
  %65 = call i32 (ptr, ...) @printf_ln(ptr noundef %53, i32 noundef %56, ptr noundef %57, i32 noundef %60, ptr noundef %63, ptr noundef %64)
  br label %66

66:                                               ; preds = %52, %38
  br label %93

67:                                               ; preds = %30
  %68 = load ptr, ptr %6, align 8, !tbaa !191
  %69 = getelementptr inbounds nuw %struct.push_info, ptr %68, i32 0, i32 1
  %70 = load i32, ptr %69, align 8, !tbaa !193
  %71 = icmp ne i32 %70, 0
  br i1 %71, label %72, label %82

72:                                               ; preds = %67
  %73 = call ptr @_(ptr noundef @.str.187)
  %74 = load ptr, ptr %5, align 8, !tbaa !203
  %75 = getelementptr inbounds nuw %struct.show_info, ptr %74, i32 0, i32 2
  %76 = load i32, ptr %75, align 8, !tbaa !113
  %77 = load ptr, ptr %7, align 8, !tbaa !11
  %78 = load ptr, ptr %6, align 8, !tbaa !191
  %79 = getelementptr inbounds nuw %struct.push_info, ptr %78, i32 0, i32 0
  %80 = load ptr, ptr %79, align 8, !tbaa !195
  %81 = call i32 (ptr, ...) @printf_ln(ptr noundef %73, i32 noundef %76, ptr noundef %77, ptr noundef %80)
  br label %92

82:                                               ; preds = %67
  %83 = call ptr @_(ptr noundef @.str.188)
  %84 = load ptr, ptr %5, align 8, !tbaa !203
  %85 = getelementptr inbounds nuw %struct.show_info, ptr %84, i32 0, i32 2
  %86 = load i32, ptr %85, align 8, !tbaa !113
  %87 = load ptr, ptr %7, align 8, !tbaa !11
  %88 = load ptr, ptr %6, align 8, !tbaa !191
  %89 = getelementptr inbounds nuw %struct.push_info, ptr %88, i32 0, i32 0
  %90 = load ptr, ptr %89, align 8, !tbaa !195
  %91 = call i32 (ptr, ...) @printf_ln(ptr noundef %83, i32 noundef %86, ptr noundef %87, ptr noundef %90)
  br label %92

92:                                               ; preds = %82, %72
  br label %93

93:                                               ; preds = %92, %66
  call void @llvm.lifetime.end.p0(i64 8, ptr %8) #11
  call void @llvm.lifetime.end.p0(i64 8, ptr %7) #11
  call void @llvm.lifetime.end.p0(i64 8, ptr %6) #11
  call void @llvm.lifetime.end.p0(i64 8, ptr %5) #11
  ret i32 0
}