; Function Attrs: nounwind uwtable
define internal noundef i32 @show_push_info_item(ptr noundef readonly captures(none) %0, ptr noundef readonly captures(none) %1) #0 {
  %3 = getelementptr inbounds nuw i8, ptr %0, i64 8
  %4 = load ptr, ptr %3, align 8, !tbaa !67
  %5 = load ptr, ptr %0, align 8, !tbaa !34
  %6 = getelementptr inbounds nuw i8, ptr %4, i64 12
  %7 = load i32, ptr %6, align 4, !tbaa !161
  switch i32 %7, label %_.exit.thread61 [
    i32 0, label %8
    i32 1, label %12
    i32 2, label %17
    i32 3, label %21
    i32 4, label %25
  ]

8:                                                ; preds = %2
  %9 = load i32, ptr @git_gettext_enabled, align 4, !tbaa !21
  %.not4.i = icmp eq i32 %9, 0
  br i1 %.not4.i, label %_.exit.thread, label %10

10:                                               ; preds = %8
  %11 = tail call ptr @dcgettext(ptr noundef null, ptr noundef nonnull @.str.180, i32 noundef 5) #19
  br label %_.exit

12:                                               ; preds = %2
  %13 = load i32, ptr @git_gettext_enabled, align 4, !tbaa !21
  %.not4.i26 = icmp eq i32 %13, 0
  br i1 %.not4.i26, label %_.exit.thread, label %_.exit28

_.exit28:                                         ; preds = %12
  %14 = tail call ptr @dcgettext(ptr noundef null, ptr noundef nonnull @.str.103, i32 noundef 5) #19
  %.pr = load i32, ptr @git_gettext_enabled, align 4, !tbaa !21
  %.not4.i29 = icmp eq i32 %.pr, 0
  br i1 %.not4.i29, label %_.exit, label %15

15:                                               ; preds = %_.exit28
  %16 = tail call ptr @dcgettext(ptr noundef null, ptr noundef nonnull @.str.181, i32 noundef 5) #19
  br label %_.exit

17:                                               ; preds = %2
  %18 = load i32, ptr @git_gettext_enabled, align 4, !tbaa !21
  %.not4.i32 = icmp eq i32 %18, 0
  br i1 %.not4.i32, label %_.exit.thread, label %19

19:                                               ; preds = %17
  %20 = tail call ptr @dcgettext(ptr noundef null, ptr noundef nonnull @.str.182, i32 noundef 5) #19
  br label %_.exit

21:                                               ; preds = %2
  %22 = load i32, ptr @git_gettext_enabled, align 4, !tbaa !21
  %.not4.i35 = icmp eq i32 %22, 0
  br i1 %.not4.i35, label %_.exit.thread, label %23

23:                                               ; preds = %21
  %24 = tail call ptr @dcgettext(ptr noundef null, ptr noundef nonnull @.str.183, i32 noundef 5) #19
  br label %_.exit

25:                                               ; preds = %2
  %26 = load i32, ptr @git_gettext_enabled, align 4, !tbaa !21
  %.not4.i38 = icmp eq i32 %26, 0
  br i1 %.not4.i38, label %_.exit.thread, label %27

27:                                               ; preds = %25
  %28 = tail call ptr @dcgettext(ptr noundef null, ptr noundef nonnull @.str.184, i32 noundef 5) #19
  br label %_.exit

_.exit:                                           ; preds = %27, %23, %19, %15, %_.exit28, %10
  %.023 = phi ptr [ %5, %10 ], [ %16, %15 ], [ @.str.181, %_.exit28 ], [ %5, %19 ], [ %5, %23 ], [ %5, %27 ]
  %.0 = phi ptr [ %11, %10 ], [ %14, %15 ], [ %14, %_.exit28 ], [ %20, %19 ], [ %24, %23 ], [ %28, %27 ]
  %.not = icmp eq ptr %.0, null
  br i1 %.not, label %_.exit.thread61, label %_.exit.thread

_.exit.thread:                                    ; preds = %12, %25, %21, %17, %8, %_.exit
  %.060 = phi ptr [ %.0, %_.exit ], [ @.str.184, %25 ], [ @.str.183, %21 ], [ @.str.182, %17 ], [ @.str.180, %8 ], [ @.str.103, %12 ]
  %.02359 = phi ptr [ %.023, %_.exit ], [ %5, %25 ], [ %5, %21 ], [ %5, %17 ], [ %5, %8 ], [ @.str.181, %12 ]
  %29 = getelementptr inbounds nuw i8, ptr %4, i64 8
  %30 = load i32, ptr %29, align 8, !tbaa !158
  %.not25 = icmp eq i32 %30, 0
  %31 = load i32, ptr @git_gettext_enabled, align 4, !tbaa !21
  %.not4.i44 = icmp eq i32 %31, 0
  br i1 %.not25, label %41, label %32

32:                                               ; preds = %_.exit.thread
  br i1 %.not4.i44, label %_.exit43, label %33

33:                                               ; preds = %32
  %34 = tail call ptr @dcgettext(ptr noundef null, ptr noundef nonnull @.str.185, i32 noundef 5) #19
  br label %_.exit43

_.exit43:                                         ; preds = %32, %33
  %.0.i42 = phi ptr [ %34, %33 ], [ @.str.185, %32 ]
  %35 = getelementptr inbounds nuw i8, ptr %1, i64 296
  %36 = load i32, ptr %35, align 8, !tbaa !112
  %37 = getelementptr inbounds nuw i8, ptr %1, i64 300
  %38 = load i32, ptr %37, align 4, !tbaa !115
  %39 = load ptr, ptr %4, align 8, !tbaa !160
  %40 = tail call i32 (ptr, ...) @printf_ln(ptr noundef %.0.i42, i32 noundef %36, ptr noundef %.02359, i32 noundef %38, ptr noundef %39, ptr noundef nonnull %.060) #19
  br label %67

41:                                               ; preds = %_.exit.thread
  br i1 %.not4.i44, label %_.exit46, label %42

42:                                               ; preds = %41
  %43 = tail call ptr @dcgettext(ptr noundef null, ptr noundef nonnull @.str.186, i32 noundef 5) #19
  br label %_.exit46

_.exit46:                                         ; preds = %41, %42
  %.0.i45 = phi ptr [ %43, %42 ], [ @.str.186, %41 ]
  %44 = getelementptr inbounds nuw i8, ptr %1, i64 296
  %45 = load i32, ptr %44, align 8, !tbaa !112
  %46 = getelementptr inbounds nuw i8, ptr %1, i64 300
  %47 = load i32, ptr %46, align 4, !tbaa !115
  %48 = load ptr, ptr %4, align 8, !tbaa !160
  %49 = tail call i32 (ptr, ...) @printf_ln(ptr noundef %.0.i45, i32 noundef %45, ptr noundef %.02359, i32 noundef %47, ptr noundef %48, ptr noundef nonnull %.060) #19
  br label %67

_.exit.thread61:                                  ; preds = %2, %_.exit
  %.02365 = phi ptr [ %.023, %_.exit ], [ %5, %2 ]
  %50 = getelementptr inbounds nuw i8, ptr %4, i64 8
  %51 = load i32, ptr %50, align 8, !tbaa !158
  %.not24 = icmp eq i32 %51, 0
  %52 = load i32, ptr @git_gettext_enabled, align 4, !tbaa !21
  %.not4.i50 = icmp eq i32 %52, 0
  br i1 %.not24, label %60, label %53

53:                                               ; preds = %_.exit.thread61
  br i1 %.not4.i50, label %_.exit49, label %54

54:                                               ; preds = %53
  %55 = tail call ptr @dcgettext(ptr noundef null, ptr noundef nonnull @.str.187, i32 noundef 5) #19
  br label %_.exit49

_.exit49:                                         ; preds = %53, %54
  %.0.i48 = phi ptr [ %55, %54 ], [ @.str.187, %53 ]
  %56 = getelementptr inbounds nuw i8, ptr %1, i64 296
  %57 = load i32, ptr %56, align 8, !tbaa !112
  %58 = load ptr, ptr %4, align 8, !tbaa !160
  %59 = tail call i32 (ptr, ...) @printf_ln(ptr noundef %.0.i48, i32 noundef %57, ptr noundef %.02365, ptr noundef %58) #19
  br label %67

60:                                               ; preds = %_.exit.thread61
  br i1 %.not4.i50, label %_.exit52, label %61

61:                                               ; preds = %60
  %62 = tail call ptr @dcgettext(ptr noundef null, ptr noundef nonnull @.str.188, i32 noundef 5) #19
  br label %_.exit52

_.exit52:                                         ; preds = %60, %61
  %.0.i51 = phi ptr [ %62, %61 ], [ @.str.188, %60 ]
  %63 = getelementptr inbounds nuw i8, ptr %1, i64 296
  %64 = load i32, ptr %63, align 8, !tbaa !112
  %65 = load ptr, ptr %4, align 8, !tbaa !160
  %66 = tail call i32 (ptr, ...) @printf_ln(ptr noundef %.0.i51, i32 noundef %64, ptr noundef %.02365, ptr noundef %65) #19
  br label %67

67:                                               ; preds = %_.exit49, %_.exit52, %_.exit43, %_.exit46
  ret i32 0
}